; Function Attrs: null_pointer_is_valid sspstrong uwtable
define internal fastcc noundef zeroext i1 @sharkd_rtp_match_init(ptr noundef %0, ptr noundef %1) unnamed_addr #0 {
  %3 = alloca i32, align 4
  %4 = alloca i32, align 4
  call void @llvm.lifetime.start.p0(i64 4, ptr nonnull %3) #17
  call void @llvm.lifetime.start.p0(i64 4, ptr nonnull %4) #17
  tail call void @llvm.memset.p0.i64(ptr noundef align 1 dereferenceable(64) %0, i8 noundef 0, i64 noundef 64, i1 noundef false) #17
  %5 = tail call ptr @g_strsplit(ptr noundef %1, ptr noundef nonnull @.str.337, i32 noundef 7)
  %6 = tail call i32 @g_strv_length(ptr noundef %5)
  %.not = icmp eq i32 %6, 5
  br i1 %.not, label %7, label %38

7:                                                ; preds = %2
  %8 = load ptr, ptr %5, align 8
  %9 = call zeroext i1 @get_host_ipaddr(ptr noundef %8, ptr noundef nonnull %3)
  br i1 %9, label %10, label %38

10:                                               ; preds = %7
  %11 = getelementptr i8, ptr %5, i64 8
  %12 = load ptr, ptr %11, align 8
  %13 = getelementptr inbounds nuw i8, ptr %0, i64 24
  %14 = call zeroext i1 @ws_strtou16(ptr noundef %12, ptr noundef null, ptr noundef nonnull %13)
  br i1 %14, label %15, label %38

15:                                               ; preds = %10
  %16 = getelementptr i8, ptr %5, i64 16
  %17 = load ptr, ptr %16, align 8
  %18 = call zeroext i1 @get_host_ipaddr(ptr noundef %17, ptr noundef nonnull %4)
  br i1 %18, label %19, label %38

19:                                               ; preds = %15
  %20 = getelementptr i8, ptr %5, i64 24
  %21 = load ptr, ptr %20, align 8
  %22 = getelementptr inbounds nuw i8, ptr %0, i64 56
  %23 = call zeroext i1 @ws_strtou16(ptr noundef %21, ptr noundef null, ptr noundef nonnull %22)
  br i1 %23, label %24, label %38

24:                                               ; preds = %19
  %25 = getelementptr i8, ptr %5, i64 32
  %26 = load ptr, ptr %25, align 8
  %27 = getelementptr inbounds nuw i8, ptr %0, i64 60
  %28 = call zeroext i1 @ws_hexstrtou32(ptr noundef %26, ptr noundef null, ptr noundef nonnull %27)
  br i1 %28, label %copy_address.exit14, label %38

copy_address.exit14:                              ; preds = %24
  call void @llvm.memset.p0.i64(ptr noundef align 8 dereferenceable(24) %0, i8 0, i64 24, i1 false)
  store i32 2, ptr %0, align 8
  %29 = call dereferenceable_or_null(4) ptr @wmem_memdup(ptr noundef null, ptr noundef nonnull %3, i64 noundef 4) #25
  %30 = getelementptr inbounds nuw i8, ptr %0, i64 16
  store ptr %29, ptr %30, align 8
  %31 = getelementptr inbounds nuw i8, ptr %0, i64 8
  store ptr %29, ptr %31, align 8
  %32 = getelementptr inbounds nuw i8, ptr %0, i64 4
  store i32 4, ptr %32, align 4
  %33 = getelementptr inbounds nuw i8, ptr %0, i64 32
  call void @llvm.memset.p0.i64(ptr noundef nonnull align 8 dereferenceable(24) %33, i8 0, i64 24, i1 false)
  store i32 2, ptr %33, align 8
  %34 = call dereferenceable_or_null(4) ptr @wmem_memdup(ptr noundef null, ptr noundef nonnull %4, i64 noundef 4) #25
  %35 = getelementptr inbounds nuw i8, ptr %0, i64 48
  store ptr %34, ptr %35, align 8
  %36 = getelementptr inbounds nuw i8, ptr %0, i64 40
  store ptr %34, ptr %36, align 8
  %37 = getelementptr inbounds nuw i8, ptr %0, i64 36
  store i32 4, ptr %37, align 4
  br label %38

38:                                               ; preds = %24, %19, %15, %10, %7, %2, %copy_address.exit14
  %.0 = phi i1 [ false, %2 ], [ true, %copy_address.exit14 ], [ false, %24 ], [ false, %19 ], [ false, %15 ], [ false, %10 ], [ false, %7 ]
  call void @g_strfreev(ptr noundef %5)
  call void @llvm.lifetime.end.p0(i64 4, ptr nonnull %4) #17
  call void @llvm.lifetime.end.p0(i64 4, ptr nonnull %3) #17
  ret i1 %.0
}